; Function Attrs: mustprogress nofree norecurse nosync nounwind willreturn memory(read, inaccessiblemem: none) uwtable
define noundef i32 @_ZNK7testing8internal12UnitTestImpl16total_test_countEv(ptr noundef nonnull readonly align 8 captures(none) dereferenceable(601) %0) local_unnamed_addr #25 align 2 {
  %2 = getelementptr inbounds nuw i8, ptr %0, i64 184
  %3 = getelementptr inbounds nuw i8, ptr %0, i64 192
  %4 = load ptr, ptr %3, align 8, !tbaa !1128
  %5 = load ptr, ptr %2, align 8, !tbaa !1129
  %.not15.i = icmp eq ptr %4, %5
  br i1 %.not15.i, label %_ZN7testing8internalL20SumOverTestSuiteListERKSt6vectorIPNS_9TestSuiteESaIS3_EEMS2_KFivE.exit, label %.lr.ph.split.us.i.preheader

.lr.ph.split.us.i.preheader:                      ; preds = %1
  %6 = ptrtoint ptr %4 to i64
  %7 = ptrtoint ptr %5 to i64
  %8 = sub i64 %6, %7
  %9 = ashr exact i64 %8, 3
  %umax = tail call i64 @llvm.umax.i64(i64 %9, i64 1)
  br label %.lr.ph.split.us.i

.lr.ph.split.us.i:                                ; preds = %.lr.ph.split.us.i.preheader, %.lr.ph.split.us.i
  %.014.us.i = phi i64 [ %22, %.lr.ph.split.us.i ], [ 0, %.lr.ph.split.us.i.preheader ]
  %.01213.us.i = phi i32 [ %21, %.lr.ph.split.us.i ], [ 0, %.lr.ph.split.us.i.preheader ]
  %10 = getelementptr inbounds nuw ptr, ptr %5, i64 %.014.us.i
  %11 = load ptr, ptr %10, align 8, !tbaa !1113
  %12 = getelementptr inbounds nuw i8, ptr %11, i64 48
  %13 = getelementptr inbounds nuw i8, ptr %11, i64 56
  %14 = load ptr, ptr %13, align 8, !tbaa !1141
  %15 = load ptr, ptr %12, align 8, !tbaa !1142
  %16 = ptrtoint ptr %14 to i64
  %17 = ptrtoint ptr %15 to i64
  %18 = sub i64 %16, %17
  %19 = lshr exact i64 %18, 3
  %20 = trunc i64 %19 to i32
  %21 = add nsw i32 %.01213.us.i, %20
  %22 = add nuw i64 %.014.us.i, 1
  %exitcond.not = icmp eq i64 %22, %umax
  br i1 %exitcond.not, label %_ZN7testing8internalL20SumOverTestSuiteListERKSt6vectorIPNS_9TestSuiteESaIS3_EEMS2_KFivE.exit, label %.lr.ph.split.us.i, !llvm.loop !1138

_ZN7testing8internalL20SumOverTestSuiteListERKSt6vectorIPNS_9TestSuiteESaIS3_EEMS2_KFivE.exit: ; preds = %.lr.ph.split.us.i, %1
  %.012.lcssa.i = phi i32 [ 0, %1 ], [ %21, %.lr.ph.split.us.i ]
  ret i32 %.012.lcssa.i
}